target datalayout = "e-m:e-p270:32:32-p271:32:32-p272:64:64-i64:64-i128:128-f80:128-n8:16:32:64-S128"
target triple = "x86_64-pc-linux-gnu"

%struct.st_table = type { i8, i8, i8, i32, ptr, i64, ptr, i64, i64, ptr }
%struct.st_features = type { i8, i8, i8, i64 }

@rb_eRuntimeError = external global i64, align 8
@.str.1 = private unnamed_addr constant [17 x i8] c"st_table too big\00", align 1

; Function Attrs: inlinehint nounwind sspstrong uwtable
define internal i32 @nlz_int64(i64 noundef %0) #3 {
  %2 = alloca i32, align 4
  %3 = alloca i64, align 8
  store i64 %0, ptr %3, align 8, !tbaa !14
  %4 = load i64, ptr %3, align 8, !tbaa !14
  %5 = icmp eq i64 %4, 0
  br i1 %5, label %6, label %7

6:                                                ; preds = %1
  store i32 64, ptr %2, align 4
  br label %11

7:                                                ; preds = %1
  %8 = load i64, ptr %3, align 8, !tbaa !14
  %9 = call i64 @llvm.ctlz.i64(i64 %8, i1 true)
  %10 = trunc i64 %9 to i32
  store i32 %10, ptr %2, align 4
  br label %11

11:                                               ; preds = %7, %6
  %12 = load i32, ptr %2, align 4
  ret i32 %12
}

; Function Attrs: alwaysinline nounwind
define internal ptr @memset.inline(ptr nonnull %0, i32 %1, i64 %2) #13 {
  %4 = alloca ptr, align 8
  %5 = alloca i32, align 4
  %6 = alloca i64, align 8
  store ptr %0, ptr %4, align 8, !tbaa !49
  store i32 %1, ptr %5, align 4, !tbaa !16
  store i64 %2, ptr %6, align 8, !tbaa !14
  %7 = load ptr, ptr %4, align 8, !tbaa !49
  %8 = load i32, ptr %5, align 4, !tbaa !16
  %9 = load i64, ptr %6, align 8, !tbaa !14
  %10 = load ptr, ptr %4, align 8, !tbaa !49
  %11 = call i64 @llvm.objectsize.i64.p0(ptr %10, i1 false, i1 true, i1 false)
  %12 = call ptr @__memset_chk(ptr noundef %7, i32 noundef %8, i64 noundef %9, i64 noundef %11) #23
  ret ptr %12
}

; Function Attrs: inlinehint nounwind sspstrong uwtable
define internal i32 @nlz_long(i64 noundef %0) #3 {
  %2 = alloca i64, align 8
  store i64 %0, ptr %2, align 8, !tbaa !14
  %3 = load i64, ptr %2, align 8, !tbaa !14
  %4 = call i32 @nlz_int64(i64 noundef %3)
  ret i32 %4
}

; Function Attrs: nounwind sspstrong uwtable
define internal void @initialize_bins(ptr noundef %0) #0 {
  %2 = alloca ptr, align 8
  store ptr %0, ptr %2, align 8, !tbaa !7
  %3 = load ptr, ptr %2, align 8, !tbaa !7
  %4 = getelementptr inbounds nuw %struct.st_table, ptr %3, i32 0, i32 6
  %5 = load ptr, ptr %4, align 8, !tbaa !28
  %6 = load ptr, ptr %2, align 8, !tbaa !7
  %7 = call i64 @bins_size(ptr noundef %6)
  %8 = call ptr @memset.inline(ptr noundef %5, i32 noundef 0, i64 noundef %7) #23
  ret void
}

; Function Attrs: inlinehint nounwind sspstrong uwtable
define internal i32 @nlz_intptr(i64 noundef %0) #3 {
  %2 = alloca i64, align 8
  store i64 %0, ptr %2, align 8, !tbaa !14
  %3 = load i64, ptr %2, align 8, !tbaa !14
  %4 = call i32 @nlz_long(i64 noundef %3)
  ret i32 %4
}

; Function Attrs: nounwind sspstrong uwtable
define internal void @make_tab_empty(ptr noundef %0) #0 {
  %2 = alloca ptr, align 8
  store ptr %0, ptr %2, align 8, !tbaa !7
  %3 = load ptr, ptr %2, align 8, !tbaa !7
  %4 = getelementptr inbounds nuw %struct.st_table, ptr %3, i32 0, i32 5
  store i64 0, ptr %4, align 8, !tbaa !32
  %5 = load ptr, ptr %2, align 8, !tbaa !7
  %6 = getelementptr inbounds nuw %struct.st_table, ptr %5, i32 0, i32 8
  store i64 0, ptr %6, align 8, !tbaa !33
  %7 = load ptr, ptr %2, align 8, !tbaa !7
  %8 = getelementptr inbounds nuw %struct.st_table, ptr %7, i32 0, i32 7
  store i64 0, ptr %8, align 8, !tbaa !34
  %9 = load ptr, ptr %2, align 8, !tbaa !7
  %10 = getelementptr inbounds nuw %struct.st_table, ptr %9, i32 0, i32 6
  %11 = load ptr, ptr %10, align 8, !tbaa !28
  %12 = icmp ne ptr %11, null
  br i1 %12, label %13, label %15

13:                                               ; preds = %1
  %14 = load ptr, ptr %2, align 8, !tbaa !7
  call void @initialize_bins(ptr noundef %14)
  br label %15

15:                                               ; preds = %13, %1
  ret void
}

; Function Attrs: inlinehint nounwind sspstrong uwtable
define internal i64 @get_allocated_entries(ptr noundef %0) #3 {
  %2 = alloca ptr, align 8
  store ptr %0, ptr %2, align 8, !tbaa !7
  %3 = load ptr, ptr %2, align 8, !tbaa !7
  %4 = getelementptr inbounds nuw %struct.st_table, ptr %3, i32 0, i32 0
  %5 = load i8, ptr %4, align 8, !tbaa !22
  %6 = zext i8 %5 to i32
  %7 = zext i32 %6 to i64
  %8 = shl i64 1, %7
  ret i64 %8
}

; Function Attrs: inlinehint nounwind sspstrong uwtable
define internal i64 @bins_size(ptr noundef %0) #3 {
  %2 = alloca ptr, align 8
  store ptr %0, ptr %2, align 8, !tbaa !7
  %3 = load ptr, ptr %2, align 8, !tbaa !7
  %4 = getelementptr inbounds nuw %struct.st_table, ptr %3, i32 0, i32 0
  %5 = load i8, ptr %4, align 8, !tbaa !22
  %6 = zext i8 %5 to i64
  %7 = getelementptr [63 x %struct.st_features], ptr @features, i64 0, i64 %6
  %8 = getelementptr inbounds nuw %struct.st_features, ptr %7, i32 0, i32 3
  %9 = load i64, ptr %8, align 8, !tbaa !31
  %10 = mul i64 %9, 8
  ret i64 %10
}

; Function Attrs: nounwind sspstrong uwtable
define internal i32 @get_power2(i64 noundef %0) #0 {
  %2 = alloca i64, align 8
  %3 = alloca i32, align 4
  store i64 %0, ptr %2, align 8, !tbaa !14
  call void @llvm.lifetime.start.p0(i64 4, ptr %3) #23
  %4 = load i64, ptr %2, align 8, !tbaa !14
  %5 = call i32 @nlz_intptr(i64 noundef %4)
  %6 = sub i32 64, %5
  store i32 %6, ptr %3, align 4, !tbaa !16
  %7 = load i32, ptr %3, align 4, !tbaa !16
  %8 = icmp ule i32 %7, 62
  br i1 %8, label %9, label %17

9:                                                ; preds = %1
  %10 = load i32, ptr %3, align 4, !tbaa !16
  %11 = icmp ult i32 %10, 2
  br i1 %11, label %12, label %13

12:                                               ; preds = %9
  br label %15

13:                                               ; preds = %9
  %14 = load i32, ptr %3, align 4, !tbaa !16
  br label %15

15:                                               ; preds = %13, %12
  %16 = phi i32 [ 2, %12 ], [ %14, %13 ]
  call void @llvm.lifetime.end.p0(i64 4, ptr %3) #23
  ret i32 %16

17:                                               ; preds = %1
  %18 = load i64, ptr @rb_eRuntimeError, align 8, !tbaa !14
  call void (i64, ptr, ...) @rb_raise(i64 noundef %18, ptr noundef @.str.1) #25
  unreachable
}

; Function Attrs: nounwind sspstrong uwtable
define hidden ptr @rb_st_init_existing_table_with_size(ptr noundef %0, ptr noundef %1, i64 noundef %2) #0 {
  %4 = alloca ptr, align 8
  %5 = alloca ptr, align 8
  %6 = alloca i64, align 8
  %7 = alloca i32, align 4
  store ptr %0, ptr %4, align 8, !tbaa !7
  store ptr %1, ptr %5, align 8, !tbaa !12
  store i64 %2, ptr %6, align 8, !tbaa !14
  call void @llvm.lifetime.start.p0(i64 4, ptr %7) #23
  %8 = load i64, ptr %6, align 8, !tbaa !14
  %9 = call i32 @get_power2(i64 noundef %8)
  store i32 %9, ptr %7, align 4, !tbaa !16
  %10 = load ptr, ptr %5, align 8, !tbaa !12
  %11 = load ptr, ptr %4, align 8, !tbaa !7
  %12 = getelementptr inbounds nuw %struct.st_table, ptr %11, i32 0, i32 4
  store ptr %10, ptr %12, align 8, !tbaa !18
  %13 = load i32, ptr %7, align 4, !tbaa !16
  %14 = trunc i32 %13 to i8
  %15 = load ptr, ptr %4, align 8, !tbaa !7
  %16 = getelementptr inbounds nuw %struct.st_table, ptr %15, i32 0, i32 0
  store i8 %14, ptr %16, align 8, !tbaa !22
  %17 = load i32, ptr %7, align 4, !tbaa !16
  %18 = sext i32 %17 to i64
  %19 = getelementptr [63 x %struct.st_features], ptr @features, i64 0, i64 %18
  %20 = getelementptr inbounds nuw %struct.st_features, ptr %19, i32 0, i32 1
  %21 = load i8, ptr %20, align 1, !tbaa !23
  %22 = load ptr, ptr %4, align 8, !tbaa !7
  %23 = getelementptr inbounds nuw %struct.st_table, ptr %22, i32 0, i32 1
  store i8 %21, ptr %23, align 1, !tbaa !25
  %24 = load i32, ptr %7, align 4, !tbaa !16
  %25 = sext i32 %24 to i64
  %26 = getelementptr [63 x %struct.st_features], ptr @features, i64 0, i64 %25
  %27 = getelementptr inbounds nuw %struct.st_features, ptr %26, i32 0, i32 2
  %28 = load i8, ptr %27, align 2, !tbaa !26
  %29 = load ptr, ptr %4, align 8, !tbaa !7
  %30 = getelementptr inbounds nuw %struct.st_table, ptr %29, i32 0, i32 2
  store i8 %28, ptr %30, align 2, !tbaa !27
  %31 = load i32, ptr %7, align 4, !tbaa !16
  %32 = icmp sle i32 %31, 4
  br i1 %32, label %33, label %36

33:                                               ; preds = %3
  %34 = load ptr, ptr %4, align 8, !tbaa !7
  %35 = getelementptr inbounds nuw %struct.st_table, ptr %34, i32 0, i32 6
  store ptr null, ptr %35, align 8, !tbaa !28
  br label %42

36:                                               ; preds = %3
  %37 = load ptr, ptr %4, align 8, !tbaa !7
  %38 = call i64 @bins_size(ptr noundef %37)
  %39 = call noalias nonnull ptr @ruby_xmalloc(i64 noundef %38) #24
  %40 = load ptr, ptr %4, align 8, !tbaa !7
  %41 = getelementptr inbounds nuw %struct.st_table, ptr %40, i32 0, i32 6
  store ptr %39, ptr %41, align 8, !tbaa !28
  br label %42

42:                                               ; preds = %36, %33
  %43 = load ptr, ptr %4, align 8, !tbaa !7
  %44 = call i64 @get_allocated_entries(ptr noundef %43)
  %45 = mul i64 %44, 24
  %46 = call noalias nonnull ptr @ruby_xmalloc(i64 noundef %45) #24
  %47 = load ptr, ptr %4, align 8, !tbaa !7
  %48 = getelementptr inbounds nuw %struct.st_table, ptr %47, i32 0, i32 9
  store ptr %46, ptr %48, align 8, !tbaa !29
  %49 = load ptr, ptr %4, align 8, !tbaa !7
  call void @make_tab_empty(ptr noundef %49)
  %50 = load ptr, ptr %4, align 8, !tbaa !7
  %51 = getelementptr inbounds nuw %struct.st_table, ptr %50, i32 0, i32 3
  store i32 0, ptr %51, align 4, !tbaa !30
  %52 = load ptr, ptr %4, align 8, !tbaa !7
  call void @llvm.lifetime.end.p0(i64 4, ptr %7) #23
  ret ptr %52
}

; Function Attrs: nounwind sspstrong uwtable
define dso_local ptr @rb_st_init_table_with_size(ptr noundef %0, i64 noundef %1) #0 {
  %3 = alloca ptr, align 8
  %4 = alloca i64, align 8
  %5 = alloca ptr, align 8
  store ptr %0, ptr %3, align 8, !tbaa !12
  store i64 %1, ptr %4, align 8, !tbaa !14
  call void @llvm.lifetime.start.p0(i64 8, ptr %5) #23
  %6 = call noalias nonnull ptr @ruby_xmalloc(i64 noundef 56) #24
  store ptr %6, ptr %5, align 8, !tbaa !7
  %7 = load ptr, ptr %5, align 8, !tbaa !7
  %8 = load ptr, ptr %3, align 8, !tbaa !12
  %9 = load i64, ptr %4, align 8, !tbaa !14
  %10 = call ptr @rb_st_init_existing_table_with_size(ptr noundef %7, ptr noundef %8, i64 noundef %9)
  %11 = load ptr, ptr %5, align 8, !tbaa !7
  call void @llvm.lifetime.end.p0(i64 8, ptr %5) #23
  ret ptr %11
}

; Function Attrs: nounwind sspstrong uwtable
define dso_local ptr @rb_st_init_table(ptr noundef %0) #0 {
  %2 = alloca ptr, align 8
  store ptr %0, ptr %2, align 8, !tbaa !12
  %3 = load ptr, ptr %2, align 8, !tbaa !12
  %4 = call ptr @rb_st_init_table_with_size(ptr noundef %3, i64 noundef 0)
  ret ptr %4
}