; Function Attrs: nounwind sspstrong uwtable
define dso_local noalias noundef nonnull ptr @rb_st_init_table(ptr noundef %0) local_unnamed_addr #0 {
rb_st_init_existing_table_with_size.exit:
  %1 = tail call noalias nonnull dereferenceable(56) ptr @ruby_xmalloc(i64 noundef 56) #24
  %2 = getelementptr inbounds nuw i8, ptr %1, i64 8
  store ptr %0, ptr %2, align 8, !tbaa !11
  store i8 2, ptr %1, align 8, !tbaa !18
  %3 = getelementptr inbounds nuw i8, ptr %1, i64 1
  store i8 3, ptr %3, align 1, !tbaa !21
  %4 = getelementptr inbounds nuw i8, ptr %1, i64 2
  store i8 0, ptr %4, align 2, !tbaa !23
  %5 = getelementptr inbounds nuw i8, ptr %1, i64 24
  store ptr null, ptr %5, align 8, !tbaa !25
  %6 = tail call noalias nonnull dereferenceable(96) ptr @ruby_xmalloc(i64 noundef 96) #24
  %7 = getelementptr inbounds nuw i8, ptr %1, i64 48
  store ptr %6, ptr %7, align 8, !tbaa !26
  %8 = getelementptr inbounds nuw i8, ptr %1, i64 16
  store i64 0, ptr %8, align 8, !tbaa !27
  %9 = getelementptr inbounds nuw i8, ptr %1, i64 32
  tail call void @llvm.memset.p0.i64(ptr noundef nonnull align 8 dereferenceable(16) %9, i8 0, i64 16, i1 false)
  %10 = getelementptr inbounds nuw i8, ptr %1, i64 4
  store i32 0, ptr %10, align 4, !tbaa !28
  ret ptr %1
}